; Function Attrs: nounwind uwtable
define ptr @l_Lean_IR_CollectMaps_collectDecl(ptr noundef %0, ptr noundef %1) local_unnamed_addr #0 {
  %3 = ptrtoint ptr %0 to i64
  %4 = and i64 %3, 1
  %.not.i22 = icmp eq i64 %4, 0
  br i1 %.not.i22, label %lean_obj_tag.exit.thread, label %lean_obj_tag.exit

lean_obj_tag.exit:                                ; preds = %2
  %5 = and i64 %3, 8589934590
  %6 = icmp eq i64 %5, 0
  br i1 %6, label %9, label %lean_dec.exit15

lean_obj_tag.exit.thread:                         ; preds = %2
  %7 = getelementptr i8, ptr %0, i64 4
  %.val.i = load i32, ptr %7, align 4
  %8 = icmp ult i32 %.val.i, 16777216
  br i1 %8, label %9, label %.thread

9:                                                ; preds = %lean_obj_tag.exit.thread, %lean_obj_tag.exit
  %10 = getelementptr inbounds nuw i8, ptr %0, i64 16
  %11 = load ptr, ptr %10, align 8, !tbaa !4
  %12 = ptrtoint ptr %11 to i64
  %13 = and i64 %12, 1
  %.not = icmp eq i64 %13, 0
  br i1 %.not, label %14, label %lean_inc.exit17

14:                                               ; preds = %9
  %.val.i23 = load i32, ptr %11, align 4, !tbaa !9
  %15 = icmp sgt i32 %.val.i23, 0
  br i1 %15, label %16, label %18, !prof !12

16:                                               ; preds = %14
  %17 = add nuw i32 %.val.i23, 1
  store i32 %17, ptr %11, align 4, !tbaa !9
  br label %lean_inc.exit17

18:                                               ; preds = %14
  %.not.i24 = icmp eq i32 %.val.i23, 0
  br i1 %.not.i24, label %lean_inc.exit17, label %19

19:                                               ; preds = %18
  tail call void @lean_inc_ref_cold(ptr noundef nonnull %11) #4
  br label %lean_inc.exit17

lean_inc.exit17:                                  ; preds = %19, %18, %16, %9
  %20 = getelementptr inbounds nuw i8, ptr %0, i64 32
  %21 = load ptr, ptr %20, align 8, !tbaa !4
  %22 = ptrtoint ptr %21 to i64
  %23 = and i64 %22, 1
  %.not32 = icmp eq i64 %23, 0
  br i1 %.not32, label %24, label %lean_inc.exit

24:                                               ; preds = %lean_inc.exit17
  %.val.i25 = load i32, ptr %21, align 4, !tbaa !9
  %25 = icmp sgt i32 %.val.i25, 0
  br i1 %25, label %26, label %28, !prof !12

26:                                               ; preds = %24
  %27 = add nuw i32 %.val.i25, 1
  store i32 %27, ptr %21, align 4, !tbaa !9
  br label %lean_inc.exit

28:                                               ; preds = %24
  %.not.i26 = icmp eq i32 %.val.i25, 0
  br i1 %.not.i26, label %lean_inc.exit, label %29

29:                                               ; preds = %28
  tail call void @lean_inc_ref_cold(ptr noundef nonnull %21) #4
  br label %lean_inc.exit

lean_inc.exit:                                    ; preds = %29, %28, %26, %lean_inc.exit17
  br i1 %.not.i22, label %30, label %lean_dec.exit16

30:                                               ; preds = %lean_inc.exit
  %31 = load i32, ptr %0, align 4, !tbaa !9
  %32 = icmp sgt i32 %31, 1
  br i1 %32, label %33, label %35, !prof !12

33:                                               ; preds = %30
  %34 = add nsw i32 %31, -1
  store i32 %34, ptr %0, align 4, !tbaa !9
  br label %lean_dec.exit16

35:                                               ; preds = %30
  %.not.i = icmp eq i32 %31, 0
  br i1 %.not.i, label %lean_dec.exit16, label %36

36:                                               ; preds = %35
  tail call void @lean_dec_ref_cold(ptr noundef nonnull %0) #4
  br label %lean_dec.exit16

lean_dec.exit16:                                  ; preds = %36, %35, %33, %lean_inc.exit
  %37 = tail call ptr @l_Lean_IR_CollectMaps_collectFnBody(ptr noundef %21, ptr noundef %1)
  %38 = getelementptr i8, ptr %11, i64 8
  %.val.i28 = load i64, ptr %38, align 8, !tbaa !15
  %.mask.i = and i64 %.val.i28, 9223372036854775807
  %.not.i29 = icmp eq i64 %.mask.i, 0
  br i1 %.not.i29, label %l_Lean_IR_CollectMaps_collectParams.exit, label %lean_dec.exit.i

lean_dec.exit.i:                                  ; preds = %lean_dec.exit16
  %39 = tail call ptr @l_Array_foldlMUnsafe_fold___at_Lean_IR_CollectMaps_collectParams___spec__1(ptr noundef nonnull readonly %11, i64 noundef 0, i64 noundef %.mask.i, ptr noundef %37)
  br label %l_Lean_IR_CollectMaps_collectParams.exit

l_Lean_IR_CollectMaps_collectParams.exit:         ; preds = %lean_dec.exit16, %lean_dec.exit.i
  %.0.i30 = phi ptr [ %39, %lean_dec.exit.i ], [ %37, %lean_dec.exit16 ]
  br i1 %.not, label %40, label %lean_dec.exit15

40:                                               ; preds = %l_Lean_IR_CollectMaps_collectParams.exit
  %41 = load i32, ptr %11, align 4, !tbaa !9
  %42 = icmp sgt i32 %41, 1
  br i1 %42, label %43, label %45, !prof !12

43:                                               ; preds = %40
  %44 = add nsw i32 %41, -1
  store i32 %44, ptr %11, align 4, !tbaa !9
  br label %lean_dec.exit15

45:                                               ; preds = %40
  %.not.i18 = icmp eq i32 %41, 0
  br i1 %.not.i18, label %lean_dec.exit15, label %46

46:                                               ; preds = %45
  tail call void @lean_dec_ref_cold(ptr noundef nonnull %11) #4
  br label %lean_dec.exit15

.thread:                                          ; preds = %lean_obj_tag.exit.thread
  %47 = load i32, ptr %0, align 4, !tbaa !9
  %48 = icmp sgt i32 %47, 1
  br i1 %48, label %49, label %51, !prof !12

49:                                               ; preds = %.thread
  %50 = add nsw i32 %47, -1
  store i32 %50, ptr %0, align 4, !tbaa !9
  br label %lean_dec.exit15

51:                                               ; preds = %.thread
  %.not.i20 = icmp eq i32 %47, 0
  br i1 %.not.i20, label %lean_dec.exit15, label %52

52:                                               ; preds = %51
  tail call void @lean_dec_ref_cold(ptr noundef nonnull %0) #4
  br label %lean_dec.exit15

lean_dec.exit15:                                  ; preds = %lean_obj_tag.exit, %49, %51, %52, %l_Lean_IR_CollectMaps_collectParams.exit, %43, %45, %46
  %.0 = phi ptr [ %.0.i30, %46 ], [ %.0.i30, %45 ], [ %.0.i30, %43 ], [ %.0.i30, %l_Lean_IR_CollectMaps_collectParams.exit ], [ %1, %52 ], [ %1, %51 ], [ %1, %49 ], [ %1, %lean_obj_tag.exit ]
  ret ptr %.0
}